target datalayout = "e-m:e-p270:32:32-p271:32:32-p272:64:64-i64:64-i128:128-f80:128-n8:16:32:64-S128"
target triple = "x86_64-pc-linux-gnu"

%struct.H5G_trav_goi_t = type { ptr, i8, ptr }
%struct.H5L_info2_t = type { i32, i8, i64, i32, %union.anon.13 }
%union.anon.13 = type { i64, [8 x i8] }
%union.anon.14 = type { ptr }
%struct.H5G_loc_t = type { ptr, ptr }
%struct.H5O_loc_t = type { ptr, i64, i8 }
%struct.H5G_stat_t = type { [2 x i64], [2 x i64], i32, i32, i64, i64, %struct.H5O_stat_t }
%struct.H5O_stat_t = type { i64, i64, i32, i32 }

@.str = private unnamed_addr constant [103 x i8] c"generated/home/dtcxzyw/WorkSpace/Projects/compilers/llvm-opt-benchmark/bench/hdf5/hdf5/src/H5Gdeprec.c\00", align 1
@H5E_SYM_g = external global i64, align 8
@__func__.H5G__get_objinfo = private unnamed_addr constant [17 x i8] c"H5G__get_objinfo\00", align 1
@H5E_EXISTS_g = external global i64, align 8
@.str.40 = private unnamed_addr constant [19 x i8] c"name doesn't exist\00", align 1

; Function Attrs: nounwind uwtable
define i32 @H5G__get_objinfo(ptr noundef %0, ptr noundef %1, i1 noundef zeroext %2, ptr noundef %3) #0 {
  %5 = alloca ptr, align 8
  %6 = alloca ptr, align 8
  %7 = alloca i8, align 1
  %8 = alloca ptr, align 8
  %9 = alloca %struct.H5G_trav_goi_t, align 8
  %10 = alloca i32, align 4
  %11 = alloca i8, align 1
  %12 = alloca %struct.H5L_info2_t, align 8
  %13 = alloca i32, align 4
  %14 = alloca i32, align 4
  %15 = alloca %union.anon.14, align 8
  %16 = alloca ptr, align 8
  store ptr %0, ptr %5, align 8
  store ptr %1, ptr %6, align 8
  %17 = zext i1 %2 to i8
  store i8 %17, ptr %7, align 1
  store ptr %3, ptr %8, align 8
  store i32 0, ptr %10, align 4
  store i8 0, ptr %11, align 1
  %18 = load ptr, ptr %8, align 8
  %19 = icmp ne ptr %18, null
  br i1 %19, label %20, label %22

20:                                               ; preds = %4
  %21 = load ptr, ptr %8, align 8
  call void @llvm.memset.p0.i64(ptr align 8 %21, i8 0, i64 80, i1 false)
  br label %22

22:                                               ; preds = %20, %4
  %23 = load ptr, ptr %8, align 8
  %24 = getelementptr inbounds %struct.H5G_trav_goi_t, ptr %9, i32 0, i32 0
  store ptr %23, ptr %24, align 8
  %25 = load i8, ptr %7, align 1
  %26 = trunc i8 %25 to i1
  %27 = getelementptr inbounds %struct.H5G_trav_goi_t, ptr %9, i32 0, i32 1
  %28 = zext i1 %26 to i8
  store i8 %28, ptr %27, align 8
  %29 = load ptr, ptr %5, align 8
  %30 = getelementptr inbounds %struct.H5G_loc_t, ptr %29, i32 0, i32 0
  %31 = load ptr, ptr %30, align 8
  %32 = getelementptr inbounds %struct.H5O_loc_t, ptr %31, i32 0, i32 0
  %33 = load ptr, ptr %32, align 8
  %34 = getelementptr inbounds %struct.H5G_trav_goi_t, ptr %9, i32 0, i32 2
  store ptr %33, ptr %34, align 8
  %35 = load ptr, ptr %5, align 8
  %36 = load ptr, ptr %6, align 8
  %37 = load i8, ptr %7, align 1
  %38 = trunc i8 %37 to i1
  %39 = select i1 %38, i32 0, i32 5
  %40 = call i32 @H5G_traverse(ptr noundef %35, ptr noundef %36, i32 noundef %39, ptr noundef @H5G__get_objinfo_cb, ptr noundef %9)
  %41 = icmp slt i32 %40, 0
  br i1 %41, label %42, label %57

42:                                               ; preds = %22
  br label %43

43:                                               ; preds = %42
  br label %44

44:                                               ; preds = %43
  br label %45

45:                                               ; preds = %44
  %46 = load i64, ptr @H5E_SYM_g, align 8
  %47 = load i64, ptr @H5E_EXISTS_g, align 8
  %48 = call i32 (ptr, ptr, i32, i64, i64, ptr, ...) @H5E_printf_stack(ptr noundef @.str, ptr noundef @__func__.H5G__get_objinfo, i32 noundef 1075, i64 noundef %46, i64 noundef %47, ptr noundef @.str.40)
  br label %49

49:                                               ; preds = %45
  store i8 1, ptr %11, align 1
  %50 = load i8, ptr %11, align 1
  %51 = trunc i8 %50 to i1
  %52 = zext i1 %51 to i8
  store i8 %52, ptr %11, align 1
  br label %53

53:                                               ; preds = %49
  br label %54

54:                                               ; preds = %53
  store i32 -1, ptr %10, align 4
  br label %113

55:                                               ; No predecessors!
  br label %56

56:                                               ; preds = %55
  br label %57

57:                                               ; preds = %56, %22
  %58 = load ptr, ptr %8, align 8
  %59 = icmp ne ptr %58, null
  br i1 %59, label %60, label %112

60:                                               ; preds = %57
  %61 = load i8, ptr %7, align 1
  %62 = trunc i8 %61 to i1
  %63 = zext i1 %62 to i32
  %64 = icmp eq i32 %63, 0
  br i1 %64, label %65, label %112

65:                                               ; preds = %60
  %66 = call i32 @H5Eauto_is_v2(i64 noundef 0, ptr noundef %14)
  %67 = load i32, ptr %14, align 4
  %68 = icmp ne i32 %67, 0
  br i1 %68, label %69, label %72

69:                                               ; preds = %65
  %70 = call i32 @H5Eget_auto2(i64 noundef 0, ptr noundef %15, ptr noundef %16)
  %71 = call i32 @H5Eset_auto2(i64 noundef 0, ptr noundef null, ptr noundef null)
  br label %75

72:                                               ; preds = %65
  %73 = call i32 @H5Eget_auto1(ptr noundef %15, ptr noundef %16)
  %74 = call i32 @H5Eset_auto1(ptr noundef null, ptr noundef null)
  br label %75

75:                                               ; preds = %72, %69
  %76 = load ptr, ptr %5, align 8
  %77 = load ptr, ptr %6, align 8
  %78 = call i32 @H5L_get_info(ptr noundef %76, ptr noundef %77, ptr noundef %12)
  store i32 %78, ptr %13, align 4
  %79 = load i32, ptr %14, align 4
  %80 = icmp ne i32 %79, 0
  br i1 %80, label %81, label %85

81:                                               ; preds = %75
  %82 = load ptr, ptr %15, align 8
  %83 = load ptr, ptr %16, align 8
  %84 = call i32 @H5Eset_auto2(i64 noundef 0, ptr noundef %82, ptr noundef %83)
  br label %89

85:                                               ; preds = %75
  %86 = load ptr, ptr %15, align 8
  %87 = load ptr, ptr %16, align 8
  %88 = call i32 @H5Eset_auto1(ptr noundef %86, ptr noundef %87)
  br label %89

89:                                               ; preds = %85, %81
  %90 = load i32, ptr %13, align 4
  %91 = icmp sge i32 %90, 0
  br i1 %91, label %92, label %111

92:                                               ; preds = %89
  %93 = getelementptr inbounds %struct.H5L_info2_t, ptr %12, i32 0, i32 0
  %94 = load i32, ptr %93, align 8
  %95 = icmp ne i32 %94, 0
  br i1 %95, label %96, label %111

96:                                               ; preds = %92
  %97 = getelementptr inbounds %struct.H5L_info2_t, ptr %12, i32 0, i32 4
  %98 = load i64, ptr %97, align 8
  %99 = load ptr, ptr %8, align 8
  %100 = getelementptr inbounds %struct.H5G_stat_t, ptr %99, i32 0, i32 5
  store i64 %98, ptr %100, align 8
  %101 = getelementptr inbounds %struct.H5L_info2_t, ptr %12, i32 0, i32 0
  %102 = load i32, ptr %101, align 8
  %103 = icmp eq i32 %102, 1
  br i1 %103, label %104, label %107

104:                                              ; preds = %96
  %105 = load ptr, ptr %8, align 8
  %106 = getelementptr inbounds %struct.H5G_stat_t, ptr %105, i32 0, i32 3
  store i32 3, ptr %106, align 4
  br label %110

107:                                              ; preds = %96
  %108 = load ptr, ptr %8, align 8
  %109 = getelementptr inbounds %struct.H5G_stat_t, ptr %108, i32 0, i32 3
  store i32 4, ptr %109, align 4
  br label %110

110:                                              ; preds = %107, %104
  br label %111

111:                                              ; preds = %110, %92, %89
  br label %112

112:                                              ; preds = %111, %60, %57
  br label %113

113:                                              ; preds = %112, %54
  %114 = load i32, ptr %10, align 4
  ret i32 %114
}