; Function Attrs: nounwind uwtable
define range(i32 -1, 1) i32 @H5G__get_objinfo(ptr noundef %0, ptr noundef %1, i1 noundef zeroext %2, ptr noundef %3) local_unnamed_addr #1 {
  %5 = alloca %struct.H5G_trav_goi_t, align 8
  %6 = alloca %struct.H5L_info2_t, align 8
  %7 = alloca i32, align 4
  %8 = alloca %union.anon.14, align 8
  %9 = alloca ptr, align 8
  %10 = zext i1 %2 to i8
  %.not = icmp eq ptr %3, null
  br i1 %.not, label %12, label %11

11:                                               ; preds = %4
  tail call void @llvm.memset.p0.i64(ptr noundef nonnull align 8 dereferenceable(80) %3, i8 0, i64 80, i1 false)
  br label %12

12:                                               ; preds = %11, %4
  store ptr %3, ptr %5, align 8
  %13 = getelementptr inbounds i8, ptr %5, i64 8
  store i8 %10, ptr %13, align 8
  %14 = load ptr, ptr %0, align 8
  %15 = load ptr, ptr %14, align 8
  %16 = getelementptr inbounds i8, ptr %5, i64 16
  store ptr %15, ptr %16, align 8
  %17 = select i1 %2, i32 0, i32 5
  %18 = call i32 @H5G_traverse(ptr noundef nonnull %0, ptr noundef %1, i32 noundef %17, ptr noundef nonnull @H5G__get_objinfo_cb, ptr noundef nonnull %5) #4
  %19 = icmp slt i32 %18, 0
  br i1 %19, label %20, label %24

20:                                               ; preds = %12
  %21 = load i64, ptr @H5E_SYM_g, align 8
  %22 = load i64, ptr @H5E_EXISTS_g, align 8
  %23 = call i32 (ptr, ptr, i32, i64, i64, ptr, ...) @H5E_printf_stack(ptr noundef nonnull @.str, ptr noundef nonnull @__func__.H5G__get_objinfo, i32 noundef 1075, i64 noundef %21, i64 noundef %22, ptr noundef nonnull @.str.40) #4
  br label %55

24:                                               ; preds = %12
  %brmerge = or i1 %.not, %2
  br i1 %brmerge, label %55, label %25

25:                                               ; preds = %24
  %26 = call i32 @H5Eauto_is_v2(i64 noundef 0, ptr noundef nonnull %7) #4
  %27 = load i32, ptr %7, align 4
  %.not20 = icmp eq i32 %27, 0
  br i1 %.not20, label %31, label %28

28:                                               ; preds = %25
  %29 = call i32 @H5Eget_auto2(i64 noundef 0, ptr noundef nonnull %8, ptr noundef nonnull %9) #4
  %30 = call i32 @H5Eset_auto2(i64 noundef 0, ptr noundef null, ptr noundef null) #4
  br label %34

31:                                               ; preds = %25
  %32 = call i32 @H5Eget_auto1(ptr noundef nonnull %8, ptr noundef nonnull %9) #4
  %33 = call i32 @H5Eset_auto1(ptr noundef null, ptr noundef null) #4
  br label %34

34:                                               ; preds = %31, %28
  %35 = call i32 @H5L_get_info(ptr noundef nonnull %0, ptr noundef %1, ptr noundef nonnull %6) #4
  %36 = load i32, ptr %7, align 4
  %.not21 = icmp eq i32 %36, 0
  %37 = load ptr, ptr %8, align 8
  %38 = load ptr, ptr %9, align 8
  br i1 %.not21, label %41, label %39

39:                                               ; preds = %34
  %40 = call i32 @H5Eset_auto2(i64 noundef 0, ptr noundef %37, ptr noundef %38) #4
  br label %43

41:                                               ; preds = %34
  %42 = call i32 @H5Eset_auto1(ptr noundef %37, ptr noundef %38) #4
  br label %43

43:                                               ; preds = %41, %39
  %44 = icmp sgt i32 %35, -1
  %45 = load i32, ptr %6, align 8
  %46 = icmp ne i32 %45, 0
  %or.cond = select i1 %44, i1 %46, i1 false
  br i1 %or.cond, label %47, label %55

47:                                               ; preds = %43
  %48 = getelementptr inbounds i8, ptr %6, i64 24
  %49 = load i64, ptr %48, align 8
  %50 = getelementptr inbounds i8, ptr %3, i64 48
  store i64 %49, ptr %50, align 8
  %51 = icmp eq i32 %45, 1
  %52 = getelementptr inbounds i8, ptr %3, i64 36
  br i1 %51, label %53, label %54

53:                                               ; preds = %47
  store i32 3, ptr %52, align 4
  br label %55

54:                                               ; preds = %47
  store i32 4, ptr %52, align 4
  br label %55

55:                                               ; preds = %24, %53, %54, %43, %20
  %.0 = phi i32 [ -1, %20 ], [ 0, %53 ], [ 0, %54 ], [ 0, %43 ], [ 0, %24 ]
  ret i32 %.0
}